; Function Attrs: mustprogress uwtable
define hidden void @_ZN4cvc58internal15pfgEnsureClosedERKNS0_7OptionsENS0_12NodeTemplateILb1EEEPNS0_14ProofGeneratorEPKcS9_b(ptr noundef nonnull readonly align 8 captures(none) dereferenceable(408) %0, ptr noundef readonly captures(none) %1, ptr noundef %2, ptr noundef %3, ptr noundef %4, i1 noundef zeroext %5) local_unnamed_addr #3 personality ptr @__gxx_personality_v0 {
  %7 = alloca %"class.std::vector.205", align 8
  %8 = alloca %"class.cvc5::internal::NodeTemplate", align 8
  call void @llvm.lifetime.start.p0(i64 24, ptr nonnull %7) #19
  call void @llvm.memset.p0.i64(ptr noundef nonnull align 8 dereferenceable(24) %7, i8 0, i64 24, i1 false)
  %9 = load ptr, ptr %1, align 8, !tbaa !233
  store ptr %9, ptr %8, align 8, !tbaa !233
  %10 = load i64, ptr %9, align 8
  %11 = lshr i64 %10, 40
  %12 = trunc nuw nsw i64 %11 to i32
  %13 = and i32 %12, 1048575
  %14 = icmp samesign ult i32 %13, 1048574
  br i1 %14, label %15, label %20, !prof !236

15:                                               ; preds = %6
  %16 = add i64 %10, 1099511627776
  %17 = and i64 %16, 1152920405095219200
  %18 = and i64 %10, -1152920405095219201
  %19 = or disjoint i64 %17, %18
  store i64 %19, ptr %9, align 8
  br label %_ZN4cvc58internal12NodeTemplateILb1EEC2ERKS2_.exit

20:                                               ; preds = %6
  %21 = icmp eq i32 %13, 1048574
  br i1 %21, label %22, label %_ZN4cvc58internal12NodeTemplateILb1EEC2ERKS2_.exit, !prof !237

22:                                               ; preds = %20
  %23 = or i64 %10, 1152920405095219200
  store i64 %23, ptr %9, align 8
  invoke void @_ZN4cvc58internal4expr9NodeValue20markRefCountMaxedOutEv(ptr noundef nonnull align 8 dereferenceable(24) %9)
          to label %_ZN4cvc58internal12NodeTemplateILb1EEC2ERKS2_.exit unwind label %37

_ZN4cvc58internal12NodeTemplateILb1EEC2ERKS2_.exit: ; preds = %20, %15, %22
  invoke void @_ZN4cvc58internal23ensureClosedWrtInternalERKNS0_7OptionsENS0_12NodeTemplateILb1EEEPNS0_14ProofGeneratorEPNS0_9ProofNodeERKSt6vectorIS5_SaIS5_EEPKcSG_b(ptr noundef nonnull align 8 dereferenceable(408) %0, ptr noundef nonnull %8, ptr noundef %2, ptr noundef null, ptr noundef nonnull align 8 dereferenceable(24) %7, ptr noundef %3, ptr noundef %4, i1 noundef zeroext %5)
          to label %24 unwind label %39

24:                                               ; preds = %_ZN4cvc58internal12NodeTemplateILb1EEC2ERKS2_.exit
  %25 = load i64, ptr %9, align 8
  %26 = and i64 %25, 1152920405095219200
  %.not.i.i = icmp eq i64 %26, 1152920405095219200
  br i1 %.not.i.i, label %_ZNSt6vectorIN4cvc58internal12NodeTemplateILb1EEESaIS3_EED2Ev.exit, label %27, !prof !237

27:                                               ; preds = %24
  %28 = add i64 %25, 1152920405095219200
  %29 = and i64 %28, 1152920405095219200
  %30 = and i64 %25, -1152920405095219201
  %31 = or disjoint i64 %29, %30
  store i64 %31, ptr %9, align 8
  %32 = icmp eq i64 %29, 0
  br i1 %32, label %33, label %_ZNSt6vectorIN4cvc58internal12NodeTemplateILb1EEESaIS3_EED2Ev.exit, !prof !237

33:                                               ; preds = %27
  invoke void @_ZN4cvc58internal4expr9NodeValue15markForDeletionEv(ptr noundef nonnull align 8 dereferenceable(24) %9)
          to label %_ZNSt6vectorIN4cvc58internal12NodeTemplateILb1EEESaIS3_EED2Ev.exit unwind label %34

34:                                               ; preds = %33
  %35 = landingpad { ptr, i32 }
          catch ptr null
  %36 = extractvalue { ptr, i32 } %35, 0
  tail call void @__clang_call_terminate(ptr %36) #21
  unreachable

_ZNSt6vectorIN4cvc58internal12NodeTemplateILb1EEESaIS3_EED2Ev.exit: ; preds = %24, %27, %33
  call void @llvm.lifetime.end.p0(i64 24, ptr nonnull %7) #19
  ret void

37:                                               ; preds = %22
  %38 = landingpad { ptr, i32 }
          cleanup
  br label %41

39:                                               ; preds = %_ZN4cvc58internal12NodeTemplateILb1EEC2ERKS2_.exit
  %40 = landingpad { ptr, i32 }
          cleanup
  call void @_ZN4cvc58internal12NodeTemplateILb1EED2Ev(ptr noundef nonnull align 8 dereferenceable(8) %8) #19
  br label %41

41:                                               ; preds = %39, %37
  %.pn = phi { ptr, i32 } [ %40, %39 ], [ %38, %37 ]
  call void @_ZNSt6vectorIN4cvc58internal12NodeTemplateILb1EEESaIS3_EED2Ev(ptr noundef nonnull align 8 dereferenceable(24) %7) #19
  call void @llvm.lifetime.end.p0(i64 24, ptr nonnull %7) #19
  resume { ptr, i32 } %.pn
}